; Function Attrs: mustprogress nofree norecurse nosync nounwind memory(argmem: write) uwtable
define void @_ZN5mmu_t9flush_tlbEv(ptr noundef nonnull writeonly align 8 captures(none) dereferenceable(43168) initializes((37008, 43152)) %0) local_unnamed_addr #3 align 2 {
  %2 = getelementptr inbounds nuw i8, ptr %0, i64 37008
  %3 = getelementptr inbounds nuw i8, ptr %0, i64 144
  tail call void @llvm.memset.p0.i64(ptr noundef nonnull align 8 dereferenceable(6144) %2, i8 -1, i64 6144, i1 false)
  br label %4

4:                                                ; preds = %4, %1
  %.03.i = phi i64 [ 0, %1 ], [ %6, %4 ]
  %5 = getelementptr inbounds nuw [1024 x %struct.icache_entry_t], ptr %3, i64 0, i64 %.03.i
  store i64 -1, ptr %5, align 8, !tbaa !46
  %6 = add nuw nsw i64 %.03.i, 1
  %exitcond.not.i = icmp eq i64 %6, 1024
  br i1 %exitcond.not.i, label %_ZN5mmu_t12flush_icacheEv.exit, label %4, !llvm.loop !51

_ZN5mmu_t12flush_icacheEv.exit:                   ; preds = %4
  ret void
}